
_middle:     file format elf32-i386


Disassembly of section .text:

00000000 <main>:
#define O_CREATE  0x200


int
main(int argc, char* argv[])
{
   0:	8d 4c 24 04          	lea    0x4(%esp),%ecx
   4:	83 e4 f0             	and    $0xfffffff0,%esp
   7:	ff 71 fc             	pushl  -0x4(%ecx)
   a:	55                   	push   %ebp
   b:	89 e5                	mov    %esp,%ebp
   d:	57                   	push   %edi
   e:	56                   	push   %esi
   f:	53                   	push   %ebx
  10:	51                   	push   %ecx
        printf(1, "please insert exactly 7 numbers \n");
        exit();
    }

    int array[7], i, j, temp, num = 7;
    for(i = 0; i < 7; i++){
  11:	31 db                	xor    %ebx,%ebx
{
  13:	81 ec f8 07 00 00    	sub    $0x7f8,%esp
    if(argc != 8) {
  19:	83 39 08             	cmpl   $0x8,(%ecx)
{
  1c:	8b 71 04             	mov    0x4(%ecx),%esi
    if(argc != 8) {
  1f:	0f 85 40 01 00 00    	jne    165 <main+0x165>
  25:	8d 76 00             	lea    0x0(%esi),%esi
        array[i] = atoi(argv[i+1]);
  28:	83 ec 0c             	sub    $0xc,%esp
  2b:	ff 74 9e 04          	pushl  0x4(%esi,%ebx,4)
  2f:	e8 3c 03 00 00       	call   370 <atoi>
  34:	89 84 9d fc f7 ff ff 	mov    %eax,-0x804(%ebp,%ebx,4)
    for(i = 0; i < 7; i++){
  3b:	83 c3 01             	add    $0x1,%ebx
  3e:	83 c4 10             	add    $0x10,%esp
  41:	83 fb 07             	cmp    $0x7,%ebx
  44:	75 e2                	jne    28 <main+0x28>
  46:	bb 06 00 00 00       	mov    $0x6,%ebx
  4b:	90                   	nop
  4c:	8d 74 26 00          	lea    0x0(%esi,%eiz,1),%esi
    }

    for (i = 0; i < num; i++)
    {
        for (j = 0; j < (num - i - 1); j++)
  50:	31 c0                	xor    %eax,%eax
  52:	39 d8                	cmp    %ebx,%eax
  54:	7d 27                	jge    7d <main+0x7d>
        {
            if (array[j] > array[j + 1])
  56:	8b 94 85 fc f7 ff ff 	mov    -0x804(%ebp,%eax,4),%edx
  5d:	83 c0 01             	add    $0x1,%eax
  60:	8b 8c 85 fc f7 ff ff 	mov    -0x804(%ebp,%eax,4),%ecx
  67:	39 ca                	cmp    %ecx,%edx
  69:	7e e7                	jle    52 <main+0x52>
        for (j = 0; j < (num - i - 1); j++)
  6b:	39 d8                	cmp    %ebx,%eax
            {
                temp = array[j];
                array[j] = array[j + 1];
  6d:	89 8c 85 f8 f7 ff ff 	mov    %ecx,-0x808(%ebp,%eax,4)
                array[j + 1] = temp;
  74:	89 94 85 fc f7 ff ff 	mov    %edx,-0x804(%ebp,%eax,4)
        for (j = 0; j < (num - i - 1); j++)
  7b:	7c d9                	jl     56 <main+0x56>
  7d:	83 eb 01             	sub    $0x1,%ebx
    for (i = 0; i < num; i++)
  80:	83 fb ff             	cmp    $0xffffffff,%ebx
  83:	75 cb                	jne    50 <main+0x50>
            }
        }
    }

    char t, midInverse[1000];
    int cnt = 0, mid = array[3];
  85:	8b 8d 08 f8 ff ff    	mov    -0x7f8(%ebp),%ecx
    while(mid != 0) {
  8b:	85 c9                	test   %ecx,%ecx
  8d:	74 63                	je     f2 <main+0xf2>
    int cnt = 0, mid = array[3];
  8f:	31 db                	xor    %ebx,%ebx
        t = (mid % 10) + '0';
  91:	be 67 66 66 66       	mov    $0x66666667,%esi
  96:	eb 0a                	jmp    a2 <main+0xa2>
  98:	90                   	nop
  99:	8d b4 26 00 00 00 00 	lea    0x0(%esi,%eiz,1),%esi
        midInverse[cnt] = t;
        mid = mid / 10;
        cnt ++;
  a0:	89 fb                	mov    %edi,%ebx
        t = (mid % 10) + '0';
  a2:	89 c8                	mov    %ecx,%eax
        cnt ++;
  a4:	8d 7b 01             	lea    0x1(%ebx),%edi
        t = (mid % 10) + '0';
  a7:	f7 ee                	imul   %esi
  a9:	89 c8                	mov    %ecx,%eax
  ab:	c1 f8 1f             	sar    $0x1f,%eax
  ae:	c1 fa 02             	sar    $0x2,%edx
  b1:	29 c2                	sub    %eax,%edx
  b3:	8d 04 92             	lea    (%edx,%edx,4),%eax
  b6:	01 c0                	add    %eax,%eax
  b8:	29 c1                	sub    %eax,%ecx
  ba:	83 c1 30             	add    $0x30,%ecx
    while(mid != 0) {
  bd:	85 d2                	test   %edx,%edx
        t = (mid % 10) + '0';
  bf:	88 8c 1d 18 f8 ff ff 	mov    %cl,-0x7e8(%ebp,%ebx,1)
        mid = mid / 10;
  c6:	89 d1                	mov    %edx,%ecx
    while(mid != 0) {
  c8:	75 d6                	jne    a0 <main+0xa0>
  ca:	8d 85 18 f8 ff ff    	lea    -0x7e8(%ebp),%eax
  d0:	8d 95 00 fc ff ff    	lea    -0x400(%ebp),%edx
  d6:	01 d8                	add    %ebx,%eax
  d8:	8d 9d 17 f8 ff ff    	lea    -0x7e9(%ebp),%ebx
  de:	66 90                	xchg   %ax,%ax
    }

    int n = 0;
    char middle[1000];
    for(i = cnt-1; i >= 0; i--) {
        middle[n] = midInverse[i];
  e0:	0f b6 08             	movzbl (%eax),%ecx
  e3:	83 e8 01             	sub    $0x1,%eax
  e6:	83 c2 01             	add    $0x1,%edx
  e9:	88 4a ff             	mov    %cl,-0x1(%edx)
    for(i = cnt-1; i >= 0; i--) {
  ec:	39 d8                	cmp    %ebx,%eax
  ee:	75 f0                	jne    e0 <main+0xe0>
  f0:	89 f9                	mov    %edi,%ecx
        n++;
    }
    middle[n] = '\n';
  f2:	c6 84 0d 00 fc ff ff 	movb   $0xa,-0x400(%ebp,%ecx,1)
  f9:	0a 
    
    printf(1, "proccess Id is %d \n", getpid());
  fa:	e8 63 03 00 00       	call   462 <getpid>
  ff:	51                   	push   %ecx
 100:	50                   	push   %eax
 101:	68 dc 08 00 00       	push   $0x8dc
 106:	6a 01                	push   $0x1
 108:	e8 33 04 00 00       	call   540 <printf>
    int fileDesc;
    if( (fileDesc = open("result.txt", O_CREATE | O_WRONLY)) < 0) {
 10d:	5b                   	pop    %ebx
 10e:	5e                   	pop    %esi
 10f:	68 01 02 00 00       	push   $0x201
 114:	68 00 09 00 00       	push   $0x900
 119:	e8 04 03 00 00       	call   422 <open>
 11e:	83 c4 10             	add    $0x10,%esp
 121:	85 c0                	test   %eax,%eax
 123:	89 c3                	mov    %eax,%ebx
 125:	78 51                	js     178 <main+0x178>
        printf(1, "can't open file result.txt");
        exit();
    }
   
    if(write(fileDesc, middle, strlen(middle)) != strlen(middle)) {
 127:	8d b5 00 fc ff ff    	lea    -0x400(%ebp),%esi
 12d:	83 ec 0c             	sub    $0xc,%esp
 130:	56                   	push   %esi
 131:	e8 da 00 00 00       	call   210 <strlen>
 136:	83 c4 0c             	add    $0xc,%esp
 139:	50                   	push   %eax
 13a:	56                   	push   %esi
 13b:	53                   	push   %ebx
 13c:	e8 c1 02 00 00       	call   402 <write>
 141:	89 c3                	mov    %eax,%ebx
 143:	89 34 24             	mov    %esi,(%esp)
 146:	e8 c5 00 00 00       	call   210 <strlen>
 14b:	83 c4 10             	add    $0x10,%esp
 14e:	39 c3                	cmp    %eax,%ebx
 150:	74 39                	je     18b <main+0x18b>
        printf(1, "Eror when writing in result.txt");
 152:	50                   	push   %eax
 153:	50                   	push   %eax
 154:	68 bc 08 00 00       	push   $0x8bc
 159:	6a 01                	push   $0x1
 15b:	e8 e0 03 00 00       	call   540 <printf>
        exit();
 160:	e8 7d 02 00 00       	call   3e2 <exit>
        printf(1, "please insert exactly 7 numbers \n");
 165:	57                   	push   %edi
 166:	57                   	push   %edi
 167:	68 98 08 00 00       	push   $0x898
 16c:	6a 01                	push   $0x1
 16e:	e8 cd 03 00 00       	call   540 <printf>
        exit();
 173:	e8 6a 02 00 00       	call   3e2 <exit>
        printf(1, "can't open file result.txt");
 178:	52                   	push   %edx
 179:	52                   	push   %edx
 17a:	68 f0 08 00 00       	push   $0x8f0
 17f:	6a 01                	push   $0x1
 181:	e8 ba 03 00 00       	call   540 <printf>
        exit();
 186:	e8 57 02 00 00       	call   3e2 <exit>
    }
    exit();
 18b:	e8 52 02 00 00       	call   3e2 <exit>

00000190 <strcpy>:
 190:	55                   	push   %ebp
 191:	89 e5                	mov    %esp,%ebp
 193:	53                   	push   %ebx
 194:	8b 45 08             	mov    0x8(%ebp),%eax
 197:	8b 4d 0c             	mov    0xc(%ebp),%ecx
 19a:	89 c2                	mov    %eax,%edx
 19c:	8d 74 26 00          	lea    0x0(%esi,%eiz,1),%esi
 1a0:	83 c1 01             	add    $0x1,%ecx
 1a3:	0f b6 59 ff          	movzbl -0x1(%ecx),%ebx
 1a7:	83 c2 01             	add    $0x1,%edx
 1aa:	84 db                	test   %bl,%bl
 1ac:	88 5a ff             	mov    %bl,-0x1(%edx)
 1af:	75 ef                	jne    1a0 <strcpy+0x10>
 1b1:	5b                   	pop    %ebx
 1b2:	5d                   	pop    %ebp
 1b3:	c3                   	ret    
 1b4:	8d b6 00 00 00 00    	lea    0x0(%esi),%esi
 1ba:	8d bf 00 00 00 00    	lea    0x0(%edi),%edi

000001c0 <strcmp>:
 1c0:	55                   	push   %ebp
 1c1:	89 e5                	mov    %esp,%ebp
 1c3:	53                   	push   %ebx
 1c4:	8b 55 08             	mov    0x8(%ebp),%edx
 1c7:	8b 4d 0c             	mov    0xc(%ebp),%ecx
 1ca:	0f b6 02             	movzbl (%edx),%eax
 1cd:	0f b6 19             	movzbl (%ecx),%ebx
 1d0:	84 c0                	test   %al,%al
 1d2:	75 1c                	jne    1f0 <strcmp+0x30>
 1d4:	eb 2a                	jmp    200 <strcmp+0x40>
 1d6:	8d 76 00             	lea    0x0(%esi),%esi
 1d9:	8d bc 27 00 00 00 00 	lea    0x0(%edi,%eiz,1),%edi
 1e0:	83 c2 01             	add    $0x1,%edx
 1e3:	0f b6 02             	movzbl (%edx),%eax
 1e6:	83 c1 01             	add    $0x1,%ecx
 1e9:	0f b6 19             	movzbl (%ecx),%ebx
 1ec:	84 c0                	test   %al,%al
 1ee:	74 10                	je     200 <strcmp+0x40>
 1f0:	38 d8                	cmp    %bl,%al
 1f2:	74 ec                	je     1e0 <strcmp+0x20>
 1f4:	29 d8                	sub    %ebx,%eax
 1f6:	5b                   	pop    %ebx
 1f7:	5d                   	pop    %ebp
 1f8:	c3                   	ret    
 1f9:	8d b4 26 00 00 00 00 	lea    0x0(%esi,%eiz,1),%esi
 200:	31 c0                	xor    %eax,%eax
 202:	29 d8                	sub    %ebx,%eax
 204:	5b                   	pop    %ebx
 205:	5d                   	pop    %ebp
 206:	c3                   	ret    
 207:	89 f6                	mov    %esi,%esi
 209:	8d bc 27 00 00 00 00 	lea    0x0(%edi,%eiz,1),%edi

00000210 <strlen>:
 210:	55                   	push   %ebp
 211:	89 e5                	mov    %esp,%ebp
 213:	8b 4d 08             	mov    0x8(%ebp),%ecx
 216:	80 39 00             	cmpb   $0x0,(%ecx)
 219:	74 15                	je     230 <strlen+0x20>
 21b:	31 d2                	xor    %edx,%edx
 21d:	8d 76 00             	lea    0x0(%esi),%esi
 220:	83 c2 01             	add    $0x1,%edx
 223:	80 3c 11 00          	cmpb   $0x0,(%ecx,%edx,1)
 227:	89 d0                	mov    %edx,%eax
 229:	75 f5                	jne    220 <strlen+0x10>
 22b:	5d                   	pop    %ebp
 22c:	c3                   	ret    
 22d:	8d 76 00             	lea    0x0(%esi),%esi
 230:	31 c0                	xor    %eax,%eax
 232:	5d                   	pop    %ebp
 233:	c3                   	ret    
 234:	8d b6 00 00 00 00    	lea    0x0(%esi),%esi
 23a:	8d bf 00 00 00 00    	lea    0x0(%edi),%edi

00000240 <memset>:
 240:	55                   	push   %ebp
 241:	89 e5                	mov    %esp,%ebp
 243:	57                   	push   %edi
 244:	8b 55 08             	mov    0x8(%ebp),%edx
 247:	8b 4d 10             	mov    0x10(%ebp),%ecx
 24a:	8b 45 0c             	mov    0xc(%ebp),%eax
 24d:	89 d7                	mov    %edx,%edi
 24f:	fc                   	cld    
 250:	f3 aa                	rep stos %al,%es:(%edi)
 252:	89 d0                	mov    %edx,%eax
 254:	5f                   	pop    %edi
 255:	5d                   	pop    %ebp
 256:	c3                   	ret    
 257:	89 f6                	mov    %esi,%esi
 259:	8d bc 27 00 00 00 00 	lea    0x0(%edi,%eiz,1),%edi

00000260 <strchr>:
 260:	55                   	push   %ebp
 261:	89 e5                	mov    %esp,%ebp
 263:	53                   	push   %ebx
 264:	8b 45 08             	mov    0x8(%ebp),%eax
 267:	8b 5d 0c             	mov    0xc(%ebp),%ebx
 26a:	0f b6 10             	movzbl (%eax),%edx
 26d:	84 d2                	test   %dl,%dl
 26f:	74 1d                	je     28e <strchr+0x2e>
 271:	38 d3                	cmp    %dl,%bl
 273:	89 d9                	mov    %ebx,%ecx
 275:	75 0d                	jne    284 <strchr+0x24>
 277:	eb 17                	jmp    290 <strchr+0x30>
 279:	8d b4 26 00 00 00 00 	lea    0x0(%esi,%eiz,1),%esi
 280:	38 ca                	cmp    %cl,%dl
 282:	74 0c                	je     290 <strchr+0x30>
 284:	83 c0 01             	add    $0x1,%eax
 287:	0f b6 10             	movzbl (%eax),%edx
 28a:	84 d2                	test   %dl,%dl
 28c:	75 f2                	jne    280 <strchr+0x20>
 28e:	31 c0                	xor    %eax,%eax
 290:	5b                   	pop    %ebx
 291:	5d                   	pop    %ebp
 292:	c3                   	ret    
 293:	8d b6 00 00 00 00    	lea    0x0(%esi),%esi
 299:	8d bc 27 00 00 00 00 	lea    0x0(%edi,%eiz,1),%edi

000002a0 <gets>:
 2a0:	55                   	push   %ebp
 2a1:	89 e5                	mov    %esp,%ebp
 2a3:	57                   	push   %edi
 2a4:	56                   	push   %esi
 2a5:	53                   	push   %ebx
 2a6:	31 f6                	xor    %esi,%esi
 2a8:	89 f3                	mov    %esi,%ebx
 2aa:	83 ec 1c             	sub    $0x1c,%esp
 2ad:	8b 7d 08             	mov    0x8(%ebp),%edi
 2b0:	eb 2f                	jmp    2e1 <gets+0x41>
 2b2:	8d b6 00 00 00 00    	lea    0x0(%esi),%esi
 2b8:	8d 45 e7             	lea    -0x19(%ebp),%eax
 2bb:	83 ec 04             	sub    $0x4,%esp
 2be:	6a 01                	push   $0x1
 2c0:	50                   	push   %eax
 2c1:	6a 00                	push   $0x0
 2c3:	e8 32 01 00 00       	call   3fa <read>
 2c8:	83 c4 10             	add    $0x10,%esp
 2cb:	85 c0                	test   %eax,%eax
 2cd:	7e 1c                	jle    2eb <gets+0x4b>
 2cf:	0f b6 45 e7          	movzbl -0x19(%ebp),%eax
 2d3:	83 c7 01             	add    $0x1,%edi
 2d6:	88 47 ff             	mov    %al,-0x1(%edi)
 2d9:	3c 0a                	cmp    $0xa,%al
 2db:	74 23                	je     300 <gets+0x60>
 2dd:	3c 0d                	cmp    $0xd,%al
 2df:	74 1f                	je     300 <gets+0x60>
 2e1:	83 c3 01             	add    $0x1,%ebx
 2e4:	3b 5d 0c             	cmp    0xc(%ebp),%ebx
 2e7:	89 fe                	mov    %edi,%esi
 2e9:	7c cd                	jl     2b8 <gets+0x18>
 2eb:	89 f3                	mov    %esi,%ebx
 2ed:	8b 45 08             	mov    0x8(%ebp),%eax
 2f0:	c6 03 00             	movb   $0x0,(%ebx)
 2f3:	8d 65 f4             	lea    -0xc(%ebp),%esp
 2f6:	5b                   	pop    %ebx
 2f7:	5e                   	pop    %esi
 2f8:	5f                   	pop    %edi
 2f9:	5d                   	pop    %ebp
 2fa:	c3                   	ret    
 2fb:	90                   	nop
 2fc:	8d 74 26 00          	lea    0x0(%esi,%eiz,1),%esi
 300:	8b 75 08             	mov    0x8(%ebp),%esi
 303:	8b 45 08             	mov    0x8(%ebp),%eax
 306:	01 de                	add    %ebx,%esi
 308:	89 f3                	mov    %esi,%ebx
 30a:	c6 03 00             	movb   $0x0,(%ebx)
 30d:	8d 65 f4             	lea    -0xc(%ebp),%esp
 310:	5b                   	pop    %ebx
 311:	5e                   	pop    %esi
 312:	5f                   	pop    %edi
 313:	5d                   	pop    %ebp
 314:	c3                   	ret    
 315:	8d 74 26 00          	lea    0x0(%esi,%eiz,1),%esi
 319:	8d bc 27 00 00 00 00 	lea    0x0(%edi,%eiz,1),%edi

00000320 <stat>:
 320:	55                   	push   %ebp
 321:	89 e5                	mov    %esp,%ebp
 323:	56                   	push   %esi
 324:	53                   	push   %ebx
 325:	83 ec 08             	sub    $0x8,%esp
 328:	6a 00                	push   $0x0
 32a:	ff 75 08             	pushl  0x8(%ebp)
 32d:	e8 f0 00 00 00       	call   422 <open>
 332:	83 c4 10             	add    $0x10,%esp
 335:	85 c0                	test   %eax,%eax
 337:	78 27                	js     360 <stat+0x40>
 339:	83 ec 08             	sub    $0x8,%esp
 33c:	ff 75 0c             	pushl  0xc(%ebp)
 33f:	89 c3                	mov    %eax,%ebx
 341:	50                   	push   %eax
 342:	e8 f3 00 00 00       	call   43a <fstat>
 347:	89 1c 24             	mov    %ebx,(%esp)
 34a:	89 c6                	mov    %eax,%esi
 34c:	e8 b9 00 00 00       	call   40a <close>
 351:	83 c4 10             	add    $0x10,%esp
 354:	8d 65 f8             	lea    -0x8(%ebp),%esp
 357:	89 f0                	mov    %esi,%eax
 359:	5b                   	pop    %ebx
 35a:	5e                   	pop    %esi
 35b:	5d                   	pop    %ebp
 35c:	c3                   	ret    
 35d:	8d 76 00             	lea    0x0(%esi),%esi
 360:	be ff ff ff ff       	mov    $0xffffffff,%esi
 365:	eb ed                	jmp    354 <stat+0x34>
 367:	89 f6                	mov    %esi,%esi
 369:	8d bc 27 00 00 00 00 	lea    0x0(%edi,%eiz,1),%edi

00000370 <atoi>:
 370:	55                   	push   %ebp
 371:	89 e5                	mov    %esp,%ebp
 373:	53                   	push   %ebx
 374:	8b 4d 08             	mov    0x8(%ebp),%ecx
 377:	0f be 11             	movsbl (%ecx),%edx
 37a:	8d 42 d0             	lea    -0x30(%edx),%eax
 37d:	3c 09                	cmp    $0x9,%al
 37f:	b8 00 00 00 00       	mov    $0x0,%eax
 384:	77 1f                	ja     3a5 <atoi+0x35>
 386:	8d 76 00             	lea    0x0(%esi),%esi
 389:	8d bc 27 00 00 00 00 	lea    0x0(%edi,%eiz,1),%edi
 390:	8d 04 80             	lea    (%eax,%eax,4),%eax
 393:	83 c1 01             	add    $0x1,%ecx
 396:	8d 44 42 d0          	lea    -0x30(%edx,%eax,2),%eax
 39a:	0f be 11             	movsbl (%ecx),%edx
 39d:	8d 5a d0             	lea    -0x30(%edx),%ebx
 3a0:	80 fb 09             	cmp    $0x9,%bl
 3a3:	76 eb                	jbe    390 <atoi+0x20>
 3a5:	5b                   	pop    %ebx
 3a6:	5d                   	pop    %ebp
 3a7:	c3                   	ret    
 3a8:	90                   	nop
 3a9:	8d b4 26 00 00 00 00 	lea    0x0(%esi,%eiz,1),%esi

000003b0 <memmove>:
 3b0:	55                   	push   %ebp
 3b1:	89 e5                	mov    %esp,%ebp
 3b3:	56                   	push   %esi
 3b4:	53                   	push   %ebx
 3b5:	8b 5d 10             	mov    0x10(%ebp),%ebx
 3b8:	8b 45 08             	mov    0x8(%ebp),%eax
 3bb:	8b 75 0c             	mov    0xc(%ebp),%esi
 3be:	85 db                	test   %ebx,%ebx
 3c0:	7e 14                	jle    3d6 <memmove+0x26>
 3c2:	31 d2                	xor    %edx,%edx
 3c4:	8d 74 26 00          	lea    0x0(%esi,%eiz,1),%esi
 3c8:	0f b6 0c 16          	movzbl (%esi,%edx,1),%ecx
 3cc:	88 0c 10             	mov    %cl,(%eax,%edx,1)
 3cf:	83 c2 01             	add    $0x1,%edx
 3d2:	39 d3                	cmp    %edx,%ebx
 3d4:	75 f2                	jne    3c8 <memmove+0x18>
 3d6:	5b                   	pop    %ebx
 3d7:	5e                   	pop    %esi
 3d8:	5d                   	pop    %ebp
 3d9:	c3                   	ret    

000003da <fork>:
 3da:	b8 01 00 00 00       	mov    $0x1,%eax
 3df:	cd 40                	int    $0x40
 3e1:	c3                   	ret    

000003e2 <exit>:
 3e2:	b8 02 00 00 00       	mov    $0x2,%eax
 3e7:	cd 40                	int    $0x40
 3e9:	c3                   	ret    

000003ea <wait>:
 3ea:	b8 03 00 00 00       	mov    $0x3,%eax
 3ef:	cd 40                	int    $0x40
 3f1:	c3                   	ret    

000003f2 <pipe>:
 3f2:	b8 04 00 00 00       	mov    $0x4,%eax
 3f7:	cd 40                	int    $0x40
 3f9:	c3                   	ret    

000003fa <read>:
 3fa:	b8 05 00 00 00       	mov    $0x5,%eax
 3ff:	cd 40                	int    $0x40
 401:	c3                   	ret    

00000402 <write>:
 402:	b8 10 00 00 00       	mov    $0x10,%eax
 407:	cd 40                	int    $0x40
 409:	c3                   	ret    

0000040a <close>:
 40a:	b8 15 00 00 00       	mov    $0x15,%eax
 40f:	cd 40                	int    $0x40
 411:	c3                   	ret    

00000412 <kill>:
 412:	b8 06 00 00 00       	mov    $0x6,%eax
 417:	cd 40                	int    $0x40
 419:	c3                   	ret    

0000041a <exec>:
 41a:	b8 07 00 00 00       	mov    $0x7,%eax
 41f:	cd 40                	int    $0x40
 421:	c3                   	ret    

00000422 <open>:
 422:	b8 0f 00 00 00       	mov    $0xf,%eax
 427:	cd 40                	int    $0x40
 429:	c3                   	ret    

0000042a <mknod>:
 42a:	b8 11 00 00 00       	mov    $0x11,%eax
 42f:	cd 40                	int    $0x40
 431:	c3                   	ret    

00000432 <unlink>:
 432:	b8 12 00 00 00       	mov    $0x12,%eax
 437:	cd 40                	int    $0x40
 439:	c3                   	ret    

0000043a <fstat>:
 43a:	b8 08 00 00 00       	mov    $0x8,%eax
 43f:	cd 40                	int    $0x40
 441:	c3                   	ret    

00000442 <link>:
 442:	b8 13 00 00 00       	mov    $0x13,%eax
 447:	cd 40                	int    $0x40
 449:	c3                   	ret    

0000044a <mkdir>:
 44a:	b8 14 00 00 00       	mov    $0x14,%eax
 44f:	cd 40                	int    $0x40
 451:	c3                   	ret    

00000452 <chdir>:
 452:	b8 09 00 00 00       	mov    $0x9,%eax
 457:	cd 40                	int    $0x40
 459:	c3                   	ret    

0000045a <dup>:
 45a:	b8 0a 00 00 00       	mov    $0xa,%eax
 45f:	cd 40                	int    $0x40
 461:	c3                   	ret    

00000462 <getpid>:
 462:	b8 0b 00 00 00       	mov    $0xb,%eax
 467:	cd 40                	int    $0x40
 469:	c3                   	ret    

0000046a <sbrk>:
 46a:	b8 0c 00 00 00       	mov    $0xc,%eax
 46f:	cd 40                	int    $0x40
 471:	c3                   	ret    

00000472 <sleep>:
 472:	b8 0d 00 00 00       	mov    $0xd,%eax
 477:	cd 40                	int    $0x40
 479:	c3                   	ret    

0000047a <uptime>:
 47a:	b8 0e 00 00 00       	mov    $0xe,%eax
 47f:	cd 40                	int    $0x40
 481:	c3                   	ret    

00000482 <incNum>:
 482:	b8 16 00 00 00       	mov    $0x16,%eax
 487:	cd 40                	int    $0x40
 489:	c3                   	ret    

0000048a <getprocs>:
 48a:	b8 17 00 00 00       	mov    $0x17,%eax
 48f:	cd 40                	int    $0x40
 491:	c3                   	ret    
 492:	66 90                	xchg   %ax,%ax
 494:	66 90                	xchg   %ax,%ax
 496:	66 90                	xchg   %ax,%ax
 498:	66 90                	xchg   %ax,%ax
 49a:	66 90                	xchg   %ax,%ax
 49c:	66 90                	xchg   %ax,%ax
 49e:	66 90                	xchg   %ax,%ax

000004a0 <printint>:
  write(fd, &c, 1);
}

static void
printint(int fd, int xx, int base, int sgn)
{
 4a0:	55                   	push   %ebp
 4a1:	89 e5                	mov    %esp,%ebp
 4a3:	57                   	push   %edi
 4a4:	56                   	push   %esi
 4a5:	53                   	push   %ebx
 4a6:	83 ec 3c             	sub    $0x3c,%esp
  char buf[16];
  int i, neg;
  uint x;

  neg = 0;
  if(sgn && xx < 0){
 4a9:	85 d2                	test   %edx,%edx
{
 4ab:	89 45 c0             	mov    %eax,-0x40(%ebp)
    neg = 1;
    x = -xx;
 4ae:	89 d0                	mov    %edx,%eax
  if(sgn && xx < 0){
 4b0:	79 76                	jns    528 <printint+0x88>
 4b2:	f6 45 08 01          	testb  $0x1,0x8(%ebp)
 4b6:	74 70                	je     528 <printint+0x88>
    x = -xx;
 4b8:	f7 d8                	neg    %eax
    neg = 1;
 4ba:	c7 45 c4 01 00 00 00 	movl   $0x1,-0x3c(%ebp)
  } else {
    x = xx;
  }

  i = 0;
 4c1:	31 f6                	xor    %esi,%esi
 4c3:	8d 5d d7             	lea    -0x29(%ebp),%ebx
 4c6:	eb 0a                	jmp    4d2 <printint+0x32>
 4c8:	90                   	nop
 4c9:	8d b4 26 00 00 00 00 	lea    0x0(%esi,%eiz,1),%esi
  do{
    buf[i++] = digits[x % base];
 4d0:	89 fe                	mov    %edi,%esi
 4d2:	31 d2                	xor    %edx,%edx
 4d4:	8d 7e 01             	lea    0x1(%esi),%edi
 4d7:	f7 f1                	div    %ecx
 4d9:	0f b6 92 14 09 00 00 	movzbl 0x914(%edx),%edx
  }while((x /= base) != 0);
 4e0:	85 c0                	test   %eax,%eax
    buf[i++] = digits[x % base];
 4e2:	88 14 3b             	mov    %dl,(%ebx,%edi,1)
  }while((x /= base) != 0);
 4e5:	75 e9                	jne    4d0 <printint+0x30>
  if(neg)
 4e7:	8b 45 c4             	mov    -0x3c(%ebp),%eax
 4ea:	85 c0                	test   %eax,%eax
 4ec:	74 08                	je     4f6 <printint+0x56>
    buf[i++] = '-';
 4ee:	c6 44 3d d8 2d       	movb   $0x2d,-0x28(%ebp,%edi,1)
 4f3:	8d 7e 02             	lea    0x2(%esi),%edi
 4f6:	8d 74 3d d7          	lea    -0x29(%ebp,%edi,1),%esi
 4fa:	8b 7d c0             	mov    -0x40(%ebp),%edi
 4fd:	8d 76 00             	lea    0x0(%esi),%esi
 500:	0f b6 06             	movzbl (%esi),%eax
  write(fd, &c, 1);
 503:	83 ec 04             	sub    $0x4,%esp
 506:	83 ee 01             	sub    $0x1,%esi
 509:	6a 01                	push   $0x1
 50b:	53                   	push   %ebx
 50c:	57                   	push   %edi
 50d:	88 45 d7             	mov    %al,-0x29(%ebp)
 510:	e8 ed fe ff ff       	call   402 <write>

  while(--i >= 0)
 515:	83 c4 10             	add    $0x10,%esp
 518:	39 de                	cmp    %ebx,%esi
 51a:	75 e4                	jne    500 <printint+0x60>
    putc(fd, buf[i]);
}
 51c:	8d 65 f4             	lea    -0xc(%ebp),%esp
 51f:	5b                   	pop    %ebx
 520:	5e                   	pop    %esi
 521:	5f                   	pop    %edi
 522:	5d                   	pop    %ebp
 523:	c3                   	ret    
 524:	8d 74 26 00          	lea    0x0(%esi,%eiz,1),%esi
  neg = 0;
 528:	c7 45 c4 00 00 00 00 	movl   $0x0,-0x3c(%ebp)
 52f:	eb 90                	jmp    4c1 <printint+0x21>
 531:	eb 0d                	jmp    540 <printf>
 533:	90                   	nop
 534:	90                   	nop
 535:	90                   	nop
 536:	90                   	nop
 537:	90                   	nop
 538:	90                   	nop
 539:	90                   	nop
 53a:	90                   	nop
 53b:	90                   	nop
 53c:	90                   	nop
 53d:	90                   	nop
 53e:	90                   	nop
 53f:	90                   	nop

00000540 <printf>:

// Print to the given fd. Only understands %d, %x, %p, %s.
void
printf(int fd, const char *fmt, ...)
{
 540:	55                   	push   %ebp
 541:	89 e5                	mov    %esp,%ebp
 543:	57                   	push   %edi
 544:	56                   	push   %esi
 545:	53                   	push   %ebx
 546:	83 ec 2c             	sub    $0x2c,%esp
  int c, i, state;
  uint *ap;

  state = 0;
  ap = (uint*)(void*)&fmt + 1;
  for(i = 0; fmt[i]; i++){
 549:	8b 75 0c             	mov    0xc(%ebp),%esi
 54c:	0f b6 1e             	movzbl (%esi),%ebx
 54f:	84 db                	test   %bl,%bl
 551:	0f 84 b3 00 00 00    	je     60a <printf+0xca>
  ap = (uint*)(void*)&fmt + 1;
 557:	8d 45 10             	lea    0x10(%ebp),%eax
 55a:	83 c6 01             	add    $0x1,%esi
  state = 0;
 55d:	31 ff                	xor    %edi,%edi
  ap = (uint*)(void*)&fmt + 1;
 55f:	89 45 d4             	mov    %eax,-0x2c(%ebp)
 562:	eb 2f                	jmp    593 <printf+0x53>
 564:	8d 74 26 00          	lea    0x0(%esi,%eiz,1),%esi
    c = fmt[i] & 0xff;
    if(state == 0){
      if(c == '%'){
 568:	83 f8 25             	cmp    $0x25,%eax
 56b:	0f 84 a7 00 00 00    	je     618 <printf+0xd8>
  write(fd, &c, 1);
 571:	8d 45 e2             	lea    -0x1e(%ebp),%eax
 574:	83 ec 04             	sub    $0x4,%esp
 577:	88 5d e2             	mov    %bl,-0x1e(%ebp)
 57a:	6a 01                	push   $0x1
 57c:	50                   	push   %eax
 57d:	ff 75 08             	pushl  0x8(%ebp)
 580:	e8 7d fe ff ff       	call   402 <write>
 585:	83 c4 10             	add    $0x10,%esp
 588:	83 c6 01             	add    $0x1,%esi
  for(i = 0; fmt[i]; i++){
 58b:	0f b6 5e ff          	movzbl -0x1(%esi),%ebx
 58f:	84 db                	test   %bl,%bl
 591:	74 77                	je     60a <printf+0xca>
    if(state == 0){
 593:	85 ff                	test   %edi,%edi
    c = fmt[i] & 0xff;
 595:	0f be cb             	movsbl %bl,%ecx
 598:	0f b6 c3             	movzbl %bl,%eax
    if(state == 0){
 59b:	74 cb                	je     568 <printf+0x28>
        state = '%';
      } else {
        putc(fd, c);
      }
    } else if(state == '%'){
 59d:	83 ff 25             	cmp    $0x25,%edi
 5a0:	75 e6                	jne    588 <printf+0x48>
      if(c == 'd'){
 5a2:	83 f8 64             	cmp    $0x64,%eax
 5a5:	0f 84 05 01 00 00    	je     6b0 <printf+0x170>
        printint(fd, *ap, 10, 1);
        ap++;
      } else if(c == 'x' || c == 'p'){
 5ab:	81 e1 f7 00 00 00    	and    $0xf7,%ecx
 5b1:	83 f9 70             	cmp    $0x70,%ecx
 5b4:	74 72                	je     628 <printf+0xe8>
        printint(fd, *ap, 16, 0);
        ap++;
      } else if(c == 's'){
 5b6:	83 f8 73             	cmp    $0x73,%eax
 5b9:	0f 84 99 00 00 00    	je     658 <printf+0x118>
          s = "(null)";
        while(*s != 0){
          putc(fd, *s);
          s++;
        }
      } else if(c == 'c'){
 5bf:	83 f8 63             	cmp    $0x63,%eax
 5c2:	0f 84 08 01 00 00    	je     6d0 <printf+0x190>
        putc(fd, *ap);
        ap++;
      } else if(c == '%'){
 5c8:	83 f8 25             	cmp    $0x25,%eax
 5cb:	0f 84 ef 00 00 00    	je     6c0 <printf+0x180>
  write(fd, &c, 1);
 5d1:	8d 45 e7             	lea    -0x19(%ebp),%eax
 5d4:	83 ec 04             	sub    $0x4,%esp
 5d7:	c6 45 e7 25          	movb   $0x25,-0x19(%ebp)
 5db:	6a 01                	push   $0x1
 5dd:	50                   	push   %eax
 5de:	ff 75 08             	pushl  0x8(%ebp)
 5e1:	e8 1c fe ff ff       	call   402 <write>
 5e6:	83 c4 0c             	add    $0xc,%esp
 5e9:	8d 45 e6             	lea    -0x1a(%ebp),%eax
 5ec:	88 5d e6             	mov    %bl,-0x1a(%ebp)
 5ef:	6a 01                	push   $0x1
 5f1:	50                   	push   %eax
 5f2:	ff 75 08             	pushl  0x8(%ebp)
 5f5:	83 c6 01             	add    $0x1,%esi
      } else {
        // Unknown % sequence.  Print it to draw attention.
        putc(fd, '%');
        putc(fd, c);
      }
      state = 0;
 5f8:	31 ff                	xor    %edi,%edi
  write(fd, &c, 1);
 5fa:	e8 03 fe ff ff       	call   402 <write>
  for(i = 0; fmt[i]; i++){
 5ff:	0f b6 5e ff          	movzbl -0x1(%esi),%ebx
  write(fd, &c, 1);
 603:	83 c4 10             	add    $0x10,%esp
  for(i = 0; fmt[i]; i++){
 606:	84 db                	test   %bl,%bl
 608:	75 89                	jne    593 <printf+0x53>
    }
  }
}
 60a:	8d 65 f4             	lea    -0xc(%ebp),%esp
 60d:	5b                   	pop    %ebx
 60e:	5e                   	pop    %esi
 60f:	5f                   	pop    %edi
 610:	5d                   	pop    %ebp
 611:	c3                   	ret    
 612:	8d b6 00 00 00 00    	lea    0x0(%esi),%esi
        state = '%';
 618:	bf 25 00 00 00       	mov    $0x25,%edi
 61d:	e9 66 ff ff ff       	jmp    588 <printf+0x48>
 622:	8d b6 00 00 00 00    	lea    0x0(%esi),%esi
        printint(fd, *ap, 16, 0);
 628:	83 ec 0c             	sub    $0xc,%esp
 62b:	b9 10 00 00 00       	mov    $0x10,%ecx
 630:	6a 00                	push   $0x0
 632:	8b 7d d4             	mov    -0x2c(%ebp),%edi
 635:	8b 45 08             	mov    0x8(%ebp),%eax
 638:	8b 17                	mov    (%edi),%edx
 63a:	e8 61 fe ff ff       	call   4a0 <printint>
        ap++;
 63f:	89 f8                	mov    %edi,%eax
 641:	83 c4 10             	add    $0x10,%esp
      state = 0;
 644:	31 ff                	xor    %edi,%edi
        ap++;
 646:	83 c0 04             	add    $0x4,%eax
 649:	89 45 d4             	mov    %eax,-0x2c(%ebp)
 64c:	e9 37 ff ff ff       	jmp    588 <printf+0x48>
 651:	8d b4 26 00 00 00 00 	lea    0x0(%esi,%eiz,1),%esi
        s = (char*)*ap;
 658:	8b 45 d4             	mov    -0x2c(%ebp),%eax
 65b:	8b 08                	mov    (%eax),%ecx
        ap++;
 65d:	83 c0 04             	add    $0x4,%eax
 660:	89 45 d4             	mov    %eax,-0x2c(%ebp)
        if(s == 0)
 663:	85 c9                	test   %ecx,%ecx
 665:	0f 84 8e 00 00 00    	je     6f9 <printf+0x1b9>
        while(*s != 0){
 66b:	0f b6 01             	movzbl (%ecx),%eax
      state = 0;
 66e:	31 ff                	xor    %edi,%edi
        s = (char*)*ap;
 670:	89 cb                	mov    %ecx,%ebx
        while(*s != 0){
 672:	84 c0                	test   %al,%al
 674:	0f 84 0e ff ff ff    	je     588 <printf+0x48>
 67a:	89 75 d0             	mov    %esi,-0x30(%ebp)
 67d:	89 de                	mov    %ebx,%esi
 67f:	8b 5d 08             	mov    0x8(%ebp),%ebx
 682:	8d 7d e3             	lea    -0x1d(%ebp),%edi
 685:	8d 76 00             	lea    0x0(%esi),%esi
  write(fd, &c, 1);
 688:	83 ec 04             	sub    $0x4,%esp
          s++;
 68b:	83 c6 01             	add    $0x1,%esi
 68e:	88 45 e3             	mov    %al,-0x1d(%ebp)
  write(fd, &c, 1);
 691:	6a 01                	push   $0x1
 693:	57                   	push   %edi
 694:	53                   	push   %ebx
 695:	e8 68 fd ff ff       	call   402 <write>
        while(*s != 0){
 69a:	0f b6 06             	movzbl (%esi),%eax
 69d:	83 c4 10             	add    $0x10,%esp
 6a0:	84 c0                	test   %al,%al
 6a2:	75 e4                	jne    688 <printf+0x148>
 6a4:	8b 75 d0             	mov    -0x30(%ebp),%esi
      state = 0;
 6a7:	31 ff                	xor    %edi,%edi
 6a9:	e9 da fe ff ff       	jmp    588 <printf+0x48>
 6ae:	66 90                	xchg   %ax,%ax
        printint(fd, *ap, 10, 1);
 6b0:	83 ec 0c             	sub    $0xc,%esp
 6b3:	b9 0a 00 00 00       	mov    $0xa,%ecx
 6b8:	6a 01                	push   $0x1
 6ba:	e9 73 ff ff ff       	jmp    632 <printf+0xf2>
 6bf:	90                   	nop
  write(fd, &c, 1);
 6c0:	83 ec 04             	sub    $0x4,%esp
 6c3:	88 5d e5             	mov    %bl,-0x1b(%ebp)
 6c6:	8d 45 e5             	lea    -0x1b(%ebp),%eax
 6c9:	6a 01                	push   $0x1
 6cb:	e9 21 ff ff ff       	jmp    5f1 <printf+0xb1>
        putc(fd, *ap);
 6d0:	8b 7d d4             	mov    -0x2c(%ebp),%edi
  write(fd, &c, 1);
 6d3:	83 ec 04             	sub    $0x4,%esp
        putc(fd, *ap);
 6d6:	8b 07                	mov    (%edi),%eax
  write(fd, &c, 1);
 6d8:	6a 01                	push   $0x1
        ap++;
 6da:	83 c7 04             	add    $0x4,%edi
        putc(fd, *ap);
 6dd:	88 45 e4             	mov    %al,-0x1c(%ebp)
  write(fd, &c, 1);
 6e0:	8d 45 e4             	lea    -0x1c(%ebp),%eax
 6e3:	50                   	push   %eax
 6e4:	ff 75 08             	pushl  0x8(%ebp)
 6e7:	e8 16 fd ff ff       	call   402 <write>
        ap++;
 6ec:	89 7d d4             	mov    %edi,-0x2c(%ebp)
 6ef:	83 c4 10             	add    $0x10,%esp
      state = 0;
 6f2:	31 ff                	xor    %edi,%edi
 6f4:	e9 8f fe ff ff       	jmp    588 <printf+0x48>
          s = "(null)";
 6f9:	bb 0b 09 00 00       	mov    $0x90b,%ebx
        while(*s != 0){
 6fe:	b8 28 00 00 00       	mov    $0x28,%eax
 703:	e9 72 ff ff ff       	jmp    67a <printf+0x13a>
 708:	66 90                	xchg   %ax,%ax
 70a:	66 90                	xchg   %ax,%ax
 70c:	66 90                	xchg   %ax,%ax
 70e:	66 90                	xchg   %ax,%ax

00000710 <free>:
 710:	55                   	push   %ebp
 711:	a1 c4 0b 00 00       	mov    0xbc4,%eax
 716:	89 e5                	mov    %esp,%ebp
 718:	57                   	push   %edi
 719:	56                   	push   %esi
 71a:	53                   	push   %ebx
 71b:	8b 5d 08             	mov    0x8(%ebp),%ebx
 71e:	8d 4b f8             	lea    -0x8(%ebx),%ecx
 721:	8d b4 26 00 00 00 00 	lea    0x0(%esi,%eiz,1),%esi
 728:	39 c8                	cmp    %ecx,%eax
 72a:	8b 10                	mov    (%eax),%edx
 72c:	73 32                	jae    760 <free+0x50>
 72e:	39 d1                	cmp    %edx,%ecx
 730:	72 04                	jb     736 <free+0x26>
 732:	39 d0                	cmp    %edx,%eax
 734:	72 32                	jb     768 <free+0x58>
 736:	8b 73 fc             	mov    -0x4(%ebx),%esi
 739:	8d 3c f1             	lea    (%ecx,%esi,8),%edi
 73c:	39 fa                	cmp    %edi,%edx
 73e:	74 30                	je     770 <free+0x60>
 740:	89 53 f8             	mov    %edx,-0x8(%ebx)
 743:	8b 50 04             	mov    0x4(%eax),%edx
 746:	8d 34 d0             	lea    (%eax,%edx,8),%esi
 749:	39 f1                	cmp    %esi,%ecx
 74b:	74 3a                	je     787 <free+0x77>
 74d:	89 08                	mov    %ecx,(%eax)
 74f:	a3 c4 0b 00 00       	mov    %eax,0xbc4
 754:	5b                   	pop    %ebx
 755:	5e                   	pop    %esi
 756:	5f                   	pop    %edi
 757:	5d                   	pop    %ebp
 758:	c3                   	ret    
 759:	8d b4 26 00 00 00 00 	lea    0x0(%esi,%eiz,1),%esi
 760:	39 d0                	cmp    %edx,%eax
 762:	72 04                	jb     768 <free+0x58>
 764:	39 d1                	cmp    %edx,%ecx
 766:	72 ce                	jb     736 <free+0x26>
 768:	89 d0                	mov    %edx,%eax
 76a:	eb bc                	jmp    728 <free+0x18>
 76c:	8d 74 26 00          	lea    0x0(%esi,%eiz,1),%esi
 770:	03 72 04             	add    0x4(%edx),%esi
 773:	89 73 fc             	mov    %esi,-0x4(%ebx)
 776:	8b 10                	mov    (%eax),%edx
 778:	8b 12                	mov    (%edx),%edx
 77a:	89 53 f8             	mov    %edx,-0x8(%ebx)
 77d:	8b 50 04             	mov    0x4(%eax),%edx
 780:	8d 34 d0             	lea    (%eax,%edx,8),%esi
 783:	39 f1                	cmp    %esi,%ecx
 785:	75 c6                	jne    74d <free+0x3d>
 787:	03 53 fc             	add    -0x4(%ebx),%edx
 78a:	a3 c4 0b 00 00       	mov    %eax,0xbc4
 78f:	89 50 04             	mov    %edx,0x4(%eax)
 792:	8b 53 f8             	mov    -0x8(%ebx),%edx
 795:	89 10                	mov    %edx,(%eax)
 797:	5b                   	pop    %ebx
 798:	5e                   	pop    %esi
 799:	5f                   	pop    %edi
 79a:	5d                   	pop    %ebp
 79b:	c3                   	ret    
 79c:	8d 74 26 00          	lea    0x0(%esi,%eiz,1),%esi

000007a0 <malloc>:
 7a0:	55                   	push   %ebp
 7a1:	89 e5                	mov    %esp,%ebp
 7a3:	57                   	push   %edi
 7a4:	56                   	push   %esi
 7a5:	53                   	push   %ebx
 7a6:	83 ec 0c             	sub    $0xc,%esp
 7a9:	8b 45 08             	mov    0x8(%ebp),%eax
 7ac:	8b 15 c4 0b 00 00    	mov    0xbc4,%edx
 7b2:	8d 78 07             	lea    0x7(%eax),%edi
 7b5:	c1 ef 03             	shr    $0x3,%edi
 7b8:	83 c7 01             	add    $0x1,%edi
 7bb:	85 d2                	test   %edx,%edx
 7bd:	0f 84 9d 00 00 00    	je     860 <malloc+0xc0>
 7c3:	8b 02                	mov    (%edx),%eax
 7c5:	8b 48 04             	mov    0x4(%eax),%ecx
 7c8:	39 cf                	cmp    %ecx,%edi
 7ca:	76 6c                	jbe    838 <malloc+0x98>
 7cc:	81 ff 00 10 00 00    	cmp    $0x1000,%edi
 7d2:	bb 00 10 00 00       	mov    $0x1000,%ebx
 7d7:	0f 43 df             	cmovae %edi,%ebx
 7da:	8d 34 dd 00 00 00 00 	lea    0x0(,%ebx,8),%esi
 7e1:	eb 0e                	jmp    7f1 <malloc+0x51>
 7e3:	90                   	nop
 7e4:	8d 74 26 00          	lea    0x0(%esi,%eiz,1),%esi
 7e8:	8b 02                	mov    (%edx),%eax
 7ea:	8b 48 04             	mov    0x4(%eax),%ecx
 7ed:	39 f9                	cmp    %edi,%ecx
 7ef:	73 47                	jae    838 <malloc+0x98>
 7f1:	39 05 c4 0b 00 00    	cmp    %eax,0xbc4
 7f7:	89 c2                	mov    %eax,%edx
 7f9:	75 ed                	jne    7e8 <malloc+0x48>
 7fb:	83 ec 0c             	sub    $0xc,%esp
 7fe:	56                   	push   %esi
 7ff:	e8 66 fc ff ff       	call   46a <sbrk>
 804:	83 c4 10             	add    $0x10,%esp
 807:	83 f8 ff             	cmp    $0xffffffff,%eax
 80a:	74 1c                	je     828 <malloc+0x88>
 80c:	89 58 04             	mov    %ebx,0x4(%eax)
 80f:	83 ec 0c             	sub    $0xc,%esp
 812:	83 c0 08             	add    $0x8,%eax
 815:	50                   	push   %eax
 816:	e8 f5 fe ff ff       	call   710 <free>
 81b:	8b 15 c4 0b 00 00    	mov    0xbc4,%edx
 821:	83 c4 10             	add    $0x10,%esp
 824:	85 d2                	test   %edx,%edx
 826:	75 c0                	jne    7e8 <malloc+0x48>
 828:	8d 65 f4             	lea    -0xc(%ebp),%esp
 82b:	31 c0                	xor    %eax,%eax
 82d:	5b                   	pop    %ebx
 82e:	5e                   	pop    %esi
 82f:	5f                   	pop    %edi
 830:	5d                   	pop    %ebp
 831:	c3                   	ret    
 832:	8d b6 00 00 00 00    	lea    0x0(%esi),%esi
 838:	39 cf                	cmp    %ecx,%edi
 83a:	74 54                	je     890 <malloc+0xf0>
 83c:	29 f9                	sub    %edi,%ecx
 83e:	89 48 04             	mov    %ecx,0x4(%eax)
 841:	8d 04 c8             	lea    (%eax,%ecx,8),%eax
 844:	89 78 04             	mov    %edi,0x4(%eax)
 847:	89 15 c4 0b 00 00    	mov    %edx,0xbc4
 84d:	8d 65 f4             	lea    -0xc(%ebp),%esp
 850:	83 c0 08             	add    $0x8,%eax
 853:	5b                   	pop    %ebx
 854:	5e                   	pop    %esi
 855:	5f                   	pop    %edi
 856:	5d                   	pop    %ebp
 857:	c3                   	ret    
 858:	90                   	nop
 859:	8d b4 26 00 00 00 00 	lea    0x0(%esi,%eiz,1),%esi
 860:	c7 05 c4 0b 00 00 c8 	movl   $0xbc8,0xbc4
 867:	0b 00 00 
 86a:	c7 05 c8 0b 00 00 c8 	movl   $0xbc8,0xbc8
 871:	0b 00 00 
 874:	b8 c8 0b 00 00       	mov    $0xbc8,%eax
 879:	c7 05 cc 0b 00 00 00 	movl   $0x0,0xbcc
 880:	00 00 00 
 883:	e9 44 ff ff ff       	jmp    7cc <malloc+0x2c>
 888:	90                   	nop
 889:	8d b4 26 00 00 00 00 	lea    0x0(%esi,%eiz,1),%esi
 890:	8b 08                	mov    (%eax),%ecx
 892:	89 0a                	mov    %ecx,(%edx)
 894:	eb b1                	jmp    847 <malloc+0xa7>
